
attiny85-mma7660-AS.elf:     file format elf32-avr

Sections:
Idx Name          Size      VMA       LMA       File off  Algn
  0 .text         0000047a  00000000  00000000  00000094  2**1
                  CONTENTS, ALLOC, LOAD, READONLY, CODE
  1 .data         00000100  00800060  0000047a  0000050e  2**0
                  CONTENTS, ALLOC, LOAD, DATA
  2 .bss          0000000e  00800160  00800160  0000060e  2**0
                  ALLOC
  3 .stab         00000024  00000000  00000000  00000610  2**2
                  CONTENTS, READONLY, DEBUGGING
  4 .stabstr      0000001e  00000000  00000000  00000634  2**0
                  CONTENTS, READONLY, DEBUGGING
  5 .comment      00000030  00000000  00000000  00000652  2**0
                  CONTENTS, READONLY
  6 .note.gnu.avr.deviceinfo 0000003c  00000000  00000000  00000684  2**2
                  CONTENTS, READONLY
  7 .debug_aranges 00000050  00000000  00000000  000006c0  2**3
                  CONTENTS, READONLY, DEBUGGING
  8 .debug_info   000005e6  00000000  00000000  00000710  2**0
                  CONTENTS, READONLY, DEBUGGING
  9 .debug_abbrev 000001d6  00000000  00000000  00000cf6  2**0
                  CONTENTS, READONLY, DEBUGGING
 10 .debug_line   00000265  00000000  00000000  00000ecc  2**0
                  CONTENTS, READONLY, DEBUGGING
 11 .debug_frame  00000070  00000000  00000000  00001134  2**2
                  CONTENTS, READONLY, DEBUGGING
 12 .debug_str    00000211  00000000  00000000  000011a4  2**0
                  CONTENTS, READONLY, DEBUGGING
 13 .debug_loc    0000016d  00000000  00000000  000013b5  2**0
                  CONTENTS, READONLY, DEBUGGING
 14 .debug_ranges 00000020  00000000  00000000  00001522  2**0
                  CONTENTS, READONLY, DEBUGGING

Disassembly of section .text:

00000000 <__vectors>:
   0:	0e c0       	rjmp	.+28     	; 0x1e <__ctors_end>
   2:	28 c0       	rjmp	.+80     	; 0x54 <__bad_interrupt>
   4:	27 c0       	rjmp	.+78     	; 0x54 <__bad_interrupt>
   6:	26 c0       	rjmp	.+76     	; 0x54 <__bad_interrupt>
   8:	25 c0       	rjmp	.+74     	; 0x54 <__bad_interrupt>
   a:	24 c0       	rjmp	.+72     	; 0x54 <__bad_interrupt>
   c:	23 c0       	rjmp	.+70     	; 0x54 <__bad_interrupt>
   e:	22 c0       	rjmp	.+68     	; 0x54 <__bad_interrupt>
  10:	21 c0       	rjmp	.+66     	; 0x54 <__bad_interrupt>
  12:	20 c0       	rjmp	.+64     	; 0x54 <__bad_interrupt>
  14:	1f c0       	rjmp	.+62     	; 0x54 <__bad_interrupt>
  16:	1e c0       	rjmp	.+60     	; 0x54 <__bad_interrupt>
  18:	1d c0       	rjmp	.+58     	; 0x54 <__bad_interrupt>
  1a:	1c c0       	rjmp	.+56     	; 0x54 <__bad_interrupt>
  1c:	1b c0       	rjmp	.+54     	; 0x54 <__bad_interrupt>

0000001e <__ctors_end>:
  1e:	11 24       	eor	r1, r1
  20:	1f be       	out	0x3f, r1	; 63
  22:	cf e5       	ldi	r28, 0x5F	; 95
  24:	d2 e0       	ldi	r29, 0x02	; 2
  26:	de bf       	out	0x3e, r29	; 62
  28:	cd bf       	out	0x3d, r28	; 61

0000002a <__do_copy_data>:
  2a:	11 e0       	ldi	r17, 0x01	; 1
  2c:	a0 e6       	ldi	r26, 0x60	; 96
  2e:	b0 e0       	ldi	r27, 0x00	; 0
  30:	ea e7       	ldi	r30, 0x7A	; 122
  32:	f4 e0       	ldi	r31, 0x04	; 4
  34:	02 c0       	rjmp	.+4      	; 0x3a <__do_copy_data+0x10>
  36:	05 90       	lpm	r0, Z+
  38:	0d 92       	st	X+, r0
  3a:	a0 36       	cpi	r26, 0x60	; 96
  3c:	b1 07       	cpc	r27, r17
  3e:	d9 f7       	brne	.-10     	; 0x36 <__do_copy_data+0xc>

00000040 <__do_clear_bss>:
  40:	21 e0       	ldi	r18, 0x01	; 1
  42:	a0 e6       	ldi	r26, 0x60	; 96
  44:	b1 e0       	ldi	r27, 0x01	; 1
  46:	01 c0       	rjmp	.+2      	; 0x4a <.do_clear_bss_start>

00000048 <.do_clear_bss_loop>:
  48:	1d 92       	st	X+, r1

0000004a <.do_clear_bss_start>:
  4a:	ae 36       	cpi	r26, 0x6E	; 110
  4c:	b2 07       	cpc	r27, r18
  4e:	e1 f7       	brne	.-8      	; 0x48 <.do_clear_bss_loop>
  50:	88 d0       	rcall	.+272    	; 0x162 <main>
  52:	11 c2       	rjmp	.+1058   	; 0x476 <_exit>

00000054 <__bad_interrupt>:
  54:	d5 cf       	rjmp	.-86     	; 0x0 <__vectors>

00000056 <i2c_delay_T2>:
	.stabs	"",100,0,0,i2c_delay_T2
	.stabs	"i2cmaster.S",100,0,0,i2c_delay_T2
	.func i2c_delay_T2	; delay 5.0 microsec with 4 Mhz crystal	
i2c_delay_T2:        ; 3 cycles
#if F_CPU <= 4000000UL
	rjmp 1f      ; 2   "
  56:	00 c0       	rjmp	.+0      	; 0x58 <i2c_delay_T2+0x2>
1:	rjmp 2f      ; 2   "
  58:	00 c0       	rjmp	.+0      	; 0x5a <i2c_delay_T2+0x4>
2:	rjmp 3f      ; 2   "
  5a:	00 c0       	rjmp	.+0      	; 0x5c <i2c_delay_T2+0x6>
3:	rjmp 4f      ; 2   "
  5c:	00 c0       	rjmp	.+0      	; 0x5e <i2c_delay_T2+0x8>
4:	rjmp 5f      ; 2   "
  5e:	00 c0       	rjmp	.+0      	; 0x60 <i2c_delay_T2+0xa>
5: 	rjmp 6f      ; 2   "
  60:	00 c0       	rjmp	.+0      	; 0x62 <i2c_delay_T2+0xc>
6:	nop          ; 1   "
  62:	00 00       	nop
	ret          ; 4   "  total 20 cyles = 5.0 microsec with 4 Mhz crystal 
  64:	08 95       	ret

00000066 <i2c_init>:
; extern void i2c_init(void)
;*************************************************************************
	.global i2c_init
	.func i2c_init
i2c_init:
	cbi SDA_DDR,SDA		;release SDA
  66:	bb 98       	cbi	0x17, 3	; 23
	cbi SCL_DDR,SCL		;release SCL
  68:	bc 98       	cbi	0x17, 4	; 23
	cbi SDA_OUT,SDA
  6a:	c3 98       	cbi	0x18, 3	; 24
	cbi SCL_OUT,SCL
  6c:	c4 98       	cbi	0x18, 4	; 24
	ret
  6e:	08 95       	ret

00000070 <i2c_start>:
;*************************************************************************

	.global i2c_start
	.func   i2c_start
i2c_start:
	sbi 	SDA_DDR,SDA	;force SDA low
  70:	bb 9a       	sbi	0x17, 3	; 23
	rcall 	i2c_delay_T2	;delay T/2
  72:	f1 df       	rcall	.-30     	; 0x56 <i2c_delay_T2>
	
	rcall 	i2c_write	;write address
  74:	1d d0       	rcall	.+58     	; 0xb0 <i2c_write>
	ret
  76:	08 95       	ret

00000078 <i2c_rep_start>:
;*************************************************************************

	.global i2c_rep_start
	.func	i2c_rep_start
i2c_rep_start:
	sbi	SCL_DDR,SCL	;force SCL low
  78:	bc 9a       	sbi	0x17, 4	; 23
	rcall 	i2c_delay_T2	;delay  T/2
  7a:	ed df       	rcall	.-38     	; 0x56 <i2c_delay_T2>
	cbi	SDA_DDR,SDA	;release SDA
  7c:	bb 98       	cbi	0x17, 3	; 23
	rcall	i2c_delay_T2	;delay T/2
  7e:	eb df       	rcall	.-42     	; 0x56 <i2c_delay_T2>
	cbi	SCL_DDR,SCL	;release SCL
  80:	bc 98       	cbi	0x17, 4	; 23
	rcall 	i2c_delay_T2	;delay  T/2
  82:	e9 df       	rcall	.-46     	; 0x56 <i2c_delay_T2>
	sbi 	SDA_DDR,SDA	;force SDA low
  84:	bb 9a       	sbi	0x17, 3	; 23
	rcall 	i2c_delay_T2	;delay	T/2
  86:	e7 df       	rcall	.-50     	; 0x56 <i2c_delay_T2>
	
	rcall	i2c_write	;write address
  88:	13 d0       	rcall	.+38     	; 0xb0 <i2c_write>
	ret
  8a:	08 95       	ret

0000008c <i2c_start_wait>:
;*************************************************************************

	.global i2c_start_wait
	.func   i2c_start_wait
i2c_start_wait:
	mov	__tmp_reg__,r24
  8c:	08 2e       	mov	r0, r24

0000008e <i2c_start_wait1>:
i2c_start_wait1:
	sbi 	SDA_DDR,SDA	;force SDA low
  8e:	bb 9a       	sbi	0x17, 3	; 23
	rcall 	i2c_delay_T2	;delay T/2
  90:	e2 df       	rcall	.-60     	; 0x56 <i2c_delay_T2>
	mov	r24,__tmp_reg__
  92:	80 2d       	mov	r24, r0
	rcall 	i2c_write	;write address
  94:	0d d0       	rcall	.+26     	; 0xb0 <i2c_write>
	tst	r24		;if device not busy -> done
  96:	88 23       	and	r24, r24
	breq	i2c_start_wait_done
  98:	11 f0       	breq	.+4      	; 0x9e <i2c_start_wait_done>
	rcall	i2c_stop	;terminate write operation
  9a:	02 d0       	rcall	.+4      	; 0xa0 <i2c_stop>
	rjmp	i2c_start_wait1	;device busy, poll ack again
  9c:	f8 cf       	rjmp	.-16     	; 0x8e <i2c_start_wait1>

0000009e <i2c_start_wait_done>:
i2c_start_wait_done:
	ret
  9e:	08 95       	ret

000000a0 <i2c_stop>:
;*************************************************************************

	.global	i2c_stop
	.func	i2c_stop
i2c_stop:
	sbi	SCL_DDR,SCL	;force SCL low
  a0:	bc 9a       	sbi	0x17, 4	; 23
	sbi	SDA_DDR,SDA	;force SDA low
  a2:	bb 9a       	sbi	0x17, 3	; 23
	rcall	i2c_delay_T2	;delay T/2
  a4:	d8 df       	rcall	.-80     	; 0x56 <i2c_delay_T2>
	cbi	SCL_DDR,SCL	;release SCL
  a6:	bc 98       	cbi	0x17, 4	; 23
	rcall	i2c_delay_T2	;delay T/2
  a8:	d6 df       	rcall	.-84     	; 0x56 <i2c_delay_T2>
	cbi	SDA_DDR,SDA	;release SDA
  aa:	bb 98       	cbi	0x17, 3	; 23
	rcall	i2c_delay_T2	;delay T/2
  ac:	d4 df       	rcall	.-88     	; 0x56 <i2c_delay_T2>
	ret
  ae:	08 95       	ret

000000b0 <i2c_write>:
;	data = r24,  return = r25(=0):r24
;*************************************************************************
	.global i2c_write
	.func	i2c_write
i2c_write:
	sec			;set carry flag
  b0:	08 94       	sec
	rol 	r24		;shift in carry and out bit one
  b2:	88 1f       	adc	r24, r24
	rjmp	i2c_write_first
  b4:	01 c0       	rjmp	.+2      	; 0xb8 <i2c_write_first>

000000b6 <i2c_write_bit>:
i2c_write_bit:
	lsl	r24		;if transmit register empty
  b6:	88 0f       	add	r24, r24

000000b8 <i2c_write_first>:
i2c_write_first:
	breq	i2c_get_ack
  b8:	59 f0       	breq	.+22     	; 0xd0 <i2c_get_ack>
	sbi	SCL_DDR,SCL	;force SCL low
  ba:	bc 9a       	sbi	0x17, 4	; 23
	brcc	i2c_write_low
  bc:	18 f4       	brcc	.+6      	; 0xc4 <i2c_write_low>
	nop
  be:	00 00       	nop
	cbi	SDA_DDR,SDA	;release SDA
  c0:	bb 98       	cbi	0x17, 3	; 23
	rjmp	i2c_write_high
  c2:	02 c0       	rjmp	.+4      	; 0xc8 <i2c_write_high>

000000c4 <i2c_write_low>:
i2c_write_low:
	sbi	SDA_DDR,SDA	;force SDA low
  c4:	bb 9a       	sbi	0x17, 3	; 23
	rjmp	i2c_write_high
  c6:	00 c0       	rjmp	.+0      	; 0xc8 <i2c_write_high>

000000c8 <i2c_write_high>:
i2c_write_high:
	rcall 	i2c_delay_T2	;delay T/2
  c8:	c6 df       	rcall	.-116    	; 0x56 <i2c_delay_T2>
	cbi	SCL_DDR,SCL	;release SCL
  ca:	bc 98       	cbi	0x17, 4	; 23
	rcall	i2c_delay_T2	;delay T/2
  cc:	c4 df       	rcall	.-120    	; 0x56 <i2c_delay_T2>
	rjmp	i2c_write_bit
  ce:	f3 cf       	rjmp	.-26     	; 0xb6 <i2c_write_bit>

000000d0 <i2c_get_ack>:
	
i2c_get_ack:
	sbi	SCL_DDR,SCL	;force SCL low
  d0:	bc 9a       	sbi	0x17, 4	; 23
	cbi	SDA_DDR,SDA	;release SDA
  d2:	bb 98       	cbi	0x17, 3	; 23
	rcall	i2c_delay_T2	;delay T/2
  d4:	c0 df       	rcall	.-128    	; 0x56 <i2c_delay_T2>
	cbi	SCL_DDR,SCL	;release SCL
  d6:	bc 98       	cbi	0x17, 4	; 23

000000d8 <i2c_ack_wait>:
i2c_ack_wait:
	sbis	SCL_IN,SCL	;wait SCL high (in case wait states are inserted)
  d8:	b4 9b       	sbis	0x16, 4	; 22
	rjmp	i2c_ack_wait
  da:	fe cf       	rjmp	.-4      	; 0xd8 <i2c_ack_wait>
	
	clr	r24		;return 0
  dc:	88 27       	eor	r24, r24
	sbic	SDA_IN,SDA	;if SDA high -> return 1
  de:	b3 99       	sbic	0x16, 3	; 22
	ldi	r24,1
  e0:	81 e0       	ldi	r24, 0x01	; 1
	rcall	i2c_delay_T2	;delay T/2
  e2:	b9 df       	rcall	.-142    	; 0x56 <i2c_delay_T2>
	clr	r25
  e4:	99 27       	eor	r25, r25
	ret
  e6:	08 95       	ret

000000e8 <i2c_readNak>:
	.global i2c_readAck
	.global i2c_readNak
	.global i2c_read		
	.func	i2c_read
i2c_readNak:
	clr	r24
  e8:	88 27       	eor	r24, r24
	rjmp	i2c_read
  ea:	01 c0       	rjmp	.+2      	; 0xee <i2c_read>

000000ec <i2c_readAck>:
i2c_readAck:
	ldi	r24,0x01
  ec:	81 e0       	ldi	r24, 0x01	; 1

000000ee <i2c_read>:
i2c_read:
	ldi	r23,0x01	;data = 0x01
  ee:	71 e0       	ldi	r23, 0x01	; 1

000000f0 <i2c_read_bit>:
i2c_read_bit:
	sbi	SCL_DDR,SCL	;force SCL low
  f0:	bc 9a       	sbi	0x17, 4	; 23
	cbi	SDA_DDR,SDA	;release SDA (from previous ACK)
  f2:	bb 98       	cbi	0x17, 3	; 23
	rcall	i2c_delay_T2	;delay T/2
  f4:	b0 df       	rcall	.-160    	; 0x56 <i2c_delay_T2>
	
	cbi	SCL_DDR,SCL	;release SCL
  f6:	bc 98       	cbi	0x17, 4	; 23
	rcall	i2c_delay_T2	;delay T/2
  f8:	ae df       	rcall	.-164    	; 0x56 <i2c_delay_T2>

000000fa <i2c_read_stretch>:
	
i2c_read_stretch:
    sbis SCL_IN, SCL        ;loop until SCL is high (allow slave to stretch SCL)
  fa:	b4 9b       	sbis	0x16, 4	; 22
    rjmp	i2c_read_stretch
  fc:	fe cf       	rjmp	.-4      	; 0xfa <i2c_read_stretch>
    	
	clc			;clear carry flag
  fe:	88 94       	clc
	sbic	SDA_IN,SDA	;if SDA is high
 100:	b3 99       	sbic	0x16, 3	; 22
	sec			;  set carry flag
 102:	08 94       	sec
	
	rol	r23		;store bit
 104:	77 1f       	adc	r23, r23
	brcc	i2c_read_bit	;while receive register not full
 106:	a0 f7       	brcc	.-24     	; 0xf0 <i2c_read_bit>

00000108 <i2c_put_ack>:
	
i2c_put_ack:
	sbi	SCL_DDR,SCL	;force SCL low	
 108:	bc 9a       	sbi	0x17, 4	; 23
	cpi	r24,1
 10a:	81 30       	cpi	r24, 0x01	; 1
	breq	i2c_put_ack_low	;if (ack=0)
 10c:	11 f0       	breq	.+4      	; 0x112 <i2c_put_ack_low>
	cbi	SDA_DDR,SDA	;      release SDA
 10e:	bb 98       	cbi	0x17, 3	; 23
	rjmp	i2c_put_ack_high
 110:	01 c0       	rjmp	.+2      	; 0x114 <i2c_put_ack_high>

00000112 <i2c_put_ack_low>:
i2c_put_ack_low:                ;else
	sbi	SDA_DDR,SDA	;      force SDA low
 112:	bb 9a       	sbi	0x17, 3	; 23

00000114 <i2c_put_ack_high>:
i2c_put_ack_high:
	rcall	i2c_delay_T2	;delay T/2
 114:	a0 df       	rcall	.-192    	; 0x56 <i2c_delay_T2>
	cbi	SCL_DDR,SCL	;release SCL
 116:	bc 98       	cbi	0x17, 4	; 23

00000118 <i2c_put_ack_wait>:
i2c_put_ack_wait:
	sbis	SCL_IN,SCL	;wait SCL high
 118:	b4 9b       	sbis	0x16, 4	; 22
	rjmp	i2c_put_ack_wait
 11a:	fe cf       	rjmp	.-4      	; 0x118 <i2c_put_ack_wait>
	rcall	i2c_delay_T2	;delay T/2
 11c:	9c df       	rcall	.-200    	; 0x56 <i2c_delay_T2>
	mov	r24,r23
 11e:	87 2f       	mov	r24, r23
	clr	r25
 120:	99 27       	eor	r25, r25
	ret
 122:	08 95       	ret

00000124 <mma7660_set_data>:

// MMA7660
// set data to given register
// See Figure 12. Single Byte Write - in MMA7660 datasheet
void mma7660_set_data(uint8_t reg, uint8_t data)
{
 124:	cf 93       	push	r28
 126:	df 93       	push	r29
 128:	d8 2f       	mov	r29, r24
 12a:	c6 2f       	mov	r28, r22
    // issue START
    i2c_start((0x4C << 1)|0x0);
 12c:	88 e9       	ldi	r24, 0x98	; 152
 12e:	a0 df       	rcall	.-192    	; 0x70 <i2c_start>
    // write register 
    i2c_write(reg);
 130:	8d 2f       	mov	r24, r29
 132:	be df       	rcall	.-132    	; 0xb0 <i2c_write>
    // write data 
    i2c_write(data);
 134:	8c 2f       	mov	r24, r28
 136:	bc df       	rcall	.-136    	; 0xb0 <i2c_write>
    // issue STOP
    i2c_stop();
 138:	b3 df       	rcall	.-154    	; 0xa0 <i2c_stop>
}
 13a:	df 91       	pop	r29
 13c:	cf 91       	pop	r28
 13e:	08 95       	ret

00000140 <mma7660_get_data>:

// MMA7660
// get data from given register
// See Figure 14. Single Byte Read - in MMA7660 datasheet
void mma7660_get_data(uint8_t reg, uint8_t* data)
{
 140:	1f 93       	push	r17
 142:	cf 93       	push	r28
 144:	df 93       	push	r29
 146:	18 2f       	mov	r17, r24
 148:	eb 01       	movw	r28, r22
    // issuse START
    i2c_start((0x4C << 1)|0x0);
 14a:	88 e9       	ldi	r24, 0x98	; 152
 14c:	91 df       	rcall	.-222    	; 0x70 <i2c_start>
    // write register
    i2c_write(reg);
 14e:	81 2f       	mov	r24, r17
 150:	af df       	rcall	.-162    	; 0xb0 <i2c_write>
    // issue Repeated START
    i2c_rep_start((0x4C << 1)|0x1);
 152:	89 e9       	ldi	r24, 0x99	; 153
 154:	91 df       	rcall	.-222    	; 0x78 <i2c_rep_start>
    // read data and issue STOP
    *data = i2c_readNak();
 156:	c8 df       	rcall	.-112    	; 0xe8 <i2c_readNak>
 158:	88 83       	st	Y, r24
}
 15a:	df 91       	pop	r29
 15c:	cf 91       	pop	r28
 15e:	1f 91       	pop	r17
 160:	08 95       	ret

00000162 <main>:
unsigned char ret;
uint8_t gdata;
float ax, ay, az;

int main()
{
 162:	cf 93       	push	r28
 164:	df 93       	push	r29
 166:	00 d0       	rcall	.+0      	; 0x168 <main+0x6>
 168:	1f 92       	push	r1
 16a:	cd b7       	in	r28, 0x3d	; 61
 16c:	de b7       	in	r29, 0x3e	; 62
	
    // initialize I2C
	i2c_init();
 16e:	7b df       	rcall	.-266    	; 0x66 <i2c_init>
	
	// set up MMA7660:

	// set MODE to stand by
	mma7660_set_data(0x07,0x00);
 170:	60 e0       	ldi	r22, 0x00	; 0
 172:	87 e0       	ldi	r24, 0x07	; 7
 174:	d7 df       	rcall	.-82     	; 0x124 <mma7660_set_data>

	// set up SR register
	mma7660_set_data(0x08,0x00);
 176:	60 e0       	ldi	r22, 0x00	; 0
 178:	88 e0       	ldi	r24, 0x08	; 8
 17a:	d4 df       	rcall	.-88     	; 0x124 <mma7660_set_data>

	// set up interrupt register
	mma7660_set_data(0x06,0b11100100);
 17c:	64 ee       	ldi	r22, 0xE4	; 228
 17e:	86 e0       	ldi	r24, 0x06	; 6
 180:	d1 df       	rcall	.-94     	; 0x124 <mma7660_set_data>

	// tap detection reg
	mma7660_set_data(0x09,11);
 182:	6b e0       	ldi	r22, 0x0B	; 11
 184:	89 e0       	ldi	r24, 0x09	; 9
 186:	ce df       	rcall	.-100    	; 0x124 <mma7660_set_data>
	
	// tap debounce reg
	mma7660_set_data(0x0a,11);
 188:	6b e0       	ldi	r22, 0x0B	; 11
 18a:	8a e0       	ldi	r24, 0x0A	; 10
 18c:	cb df       	rcall	.-106    	; 0x124 <mma7660_set_data>

	// count
	mma7660_set_data(0x05, 0xff);
 18e:	6f ef       	ldi	r22, 0xFF	; 255
 190:	85 e0       	ldi	r24, 0x05	; 5
 192:	c8 df       	rcall	.-112    	; 0x124 <mma7660_set_data>
	
	// set MODE to active
	mma7660_set_data(0x07,0b00011001);
 194:	69 e1       	ldi	r22, 0x19	; 25
 196:	87 e0       	ldi	r24, 0x07	; 7
 198:	c5 df       	rcall	.-118    	; 0x124 <mma7660_set_data>

	DDRB = (0x1 << PB2);
 19a:	84 e0       	ldi	r24, 0x04	; 4
 19c:	87 bb       	out	0x17, r24	; 23
    
    // main loop 
    while (1) {	
    
    uint8_t x, y, z;
    mma7660_get_data(0x00, &x);
 19e:	be 01       	movw	r22, r28
 1a0:	6d 5f       	subi	r22, 0xFD	; 253
 1a2:	7f 4f       	sbci	r23, 0xFF	; 255
 1a4:	80 e0       	ldi	r24, 0x00	; 0
 1a6:	cc df       	rcall	.-104    	; 0x140 <mma7660_get_data>
    mma7660_get_data(0x01, &y);
 1a8:	be 01       	movw	r22, r28
 1aa:	6e 5f       	subi	r22, 0xFE	; 254
 1ac:	7f 4f       	sbci	r23, 0xFF	; 255
 1ae:	81 e0       	ldi	r24, 0x01	; 1
 1b0:	c7 df       	rcall	.-114    	; 0x140 <mma7660_get_data>
    mma7660_get_data(0x02, &z);
 1b2:	be 01       	movw	r22, r28
 1b4:	6f 5f       	subi	r22, 0xFF	; 255
 1b6:	7f 4f       	sbci	r23, 0xFF	; 255
 1b8:	82 e0       	ldi	r24, 0x02	; 2
 1ba:	c2 df       	rcall	.-124    	; 0x140 <mma7660_get_data>
    
    ax = gLUT[x];
 1bc:	eb 81       	ldd	r30, Y+3	; 0x03
 1be:	f0 e0       	ldi	r31, 0x00	; 0
 1c0:	ee 0f       	add	r30, r30
 1c2:	ff 1f       	adc	r31, r31
 1c4:	ee 0f       	add	r30, r30
 1c6:	ff 1f       	adc	r31, r31
 1c8:	e0 5a       	subi	r30, 0xA0	; 160
 1ca:	ff 4f       	sbci	r31, 0xFF	; 255
 1cc:	60 81       	ld	r22, Z
 1ce:	71 81       	ldd	r23, Z+1	; 0x01
 1d0:	82 81       	ldd	r24, Z+2	; 0x02
 1d2:	93 81       	ldd	r25, Z+3	; 0x03
 1d4:	60 93 64 01 	sts	0x0164, r22
 1d8:	70 93 65 01 	sts	0x0165, r23
 1dc:	80 93 66 01 	sts	0x0166, r24
 1e0:	90 93 67 01 	sts	0x0167, r25
    ay = gLUT[y];
 1e4:	ea 81       	ldd	r30, Y+2	; 0x02
 1e6:	f0 e0       	ldi	r31, 0x00	; 0
 1e8:	ee 0f       	add	r30, r30
 1ea:	ff 1f       	adc	r31, r31
 1ec:	ee 0f       	add	r30, r30
 1ee:	ff 1f       	adc	r31, r31
 1f0:	e0 5a       	subi	r30, 0xA0	; 160
 1f2:	ff 4f       	sbci	r31, 0xFF	; 255
 1f4:	c0 80       	ld	r12, Z
 1f6:	d1 80       	ldd	r13, Z+1	; 0x01
 1f8:	e2 80       	ldd	r14, Z+2	; 0x02
 1fa:	f3 80       	ldd	r15, Z+3	; 0x03
 1fc:	c0 92 6a 01 	sts	0x016A, r12
 200:	d0 92 6b 01 	sts	0x016B, r13
 204:	e0 92 6c 01 	sts	0x016C, r14
 208:	f0 92 6d 01 	sts	0x016D, r15
    az = gLUT[z];
 20c:	e9 81       	ldd	r30, Y+1	; 0x01
 20e:	f0 e0       	ldi	r31, 0x00	; 0
 210:	ee 0f       	add	r30, r30
 212:	ff 1f       	adc	r31, r31
 214:	ee 0f       	add	r30, r30
 216:	ff 1f       	adc	r31, r31
 218:	e0 5a       	subi	r30, 0xA0	; 160
 21a:	ff 4f       	sbci	r31, 0xFF	; 255
 21c:	80 80       	ld	r8, Z
 21e:	91 80       	ldd	r9, Z+1	; 0x01
 220:	a2 80       	ldd	r10, Z+2	; 0x02
 222:	b3 80       	ldd	r11, Z+3	; 0x03
 224:	80 92 60 01 	sts	0x0160, r8
 228:	90 92 61 01 	sts	0x0161, r9
 22c:	a0 92 62 01 	sts	0x0162, r10
 230:	b0 92 63 01 	sts	0x0163, r11
    
    // for debugging - breakpt
    ret = 5 + ax + ay + az;
 234:	20 e0       	ldi	r18, 0x00	; 0
 236:	30 e0       	ldi	r19, 0x00	; 0
 238:	40 ea       	ldi	r20, 0xA0	; 160
 23a:	50 e4       	ldi	r21, 0x40	; 64
 23c:	3b d0       	rcall	.+118    	; 0x2b4 <__addsf3>
 23e:	9b 01       	movw	r18, r22
 240:	ac 01       	movw	r20, r24
 242:	c7 01       	movw	r24, r14
 244:	b6 01       	movw	r22, r12
 246:	36 d0       	rcall	.+108    	; 0x2b4 <__addsf3>
 248:	9b 01       	movw	r18, r22
 24a:	ac 01       	movw	r20, r24
 24c:	c5 01       	movw	r24, r10
 24e:	b4 01       	movw	r22, r8
 250:	31 d0       	rcall	.+98     	; 0x2b4 <__addsf3>
 252:	94 d0       	rcall	.+296    	; 0x37c <__fixunssfsi>
 254:	60 93 69 01 	sts	0x0169, r22

		// flash# 1:
		// set high
		PORTB |= (0x1 << PB2);
 258:	c2 9a       	sbi	0x18, 2	; 24
	#else
		//round up by default
		__ticks_dc = (uint32_t)(ceil(fabs(__tmp)));
	#endif

	__builtin_avr_delay_cycles(__ticks_dc);
 25a:	8f e3       	ldi	r24, 0x3F	; 63
 25c:	9c e9       	ldi	r25, 0x9C	; 156
 25e:	01 97       	sbiw	r24, 0x01	; 1
 260:	f1 f7       	brne	.-4      	; 0x25e <main+0xfc>
 262:	00 c0       	rjmp	.+0      	; 0x264 <__stack+0x5>
 264:	00 00       	nop
		_delay_ms(20);// set up MMA7660:

		// set MODE to stand by
		mma7660_set_data(0x07,0x00);
 266:	60 e0       	ldi	r22, 0x00	; 0
 268:	87 e0       	ldi	r24, 0x07	; 7
 26a:	5c df       	rcall	.-328    	; 0x124 <mma7660_set_data>

		// set up SR register
		mma7660_set_data(0x08,0x00);
 26c:	60 e0       	ldi	r22, 0x00	; 0
 26e:	88 e0       	ldi	r24, 0x08	; 8
 270:	59 df       	rcall	.-334    	; 0x124 <mma7660_set_data>

		// set up interrupt register
		mma7660_set_data(0x06,0b11100100);
 272:	64 ee       	ldi	r22, 0xE4	; 228
 274:	86 e0       	ldi	r24, 0x06	; 6
 276:	56 df       	rcall	.-340    	; 0x124 <mma7660_set_data>

		// tap detection reg
		mma7660_set_data(0x09,11);
 278:	6b e0       	ldi	r22, 0x0B	; 11
 27a:	89 e0       	ldi	r24, 0x09	; 9
 27c:	53 df       	rcall	.-346    	; 0x124 <mma7660_set_data>
		
		// tap debounce reg
		mma7660_set_data(0x0a,11);
 27e:	6b e0       	ldi	r22, 0x0B	; 11
 280:	8a e0       	ldi	r24, 0x0A	; 10
 282:	50 df       	rcall	.-352    	; 0x124 <mma7660_set_data>

		// count
		mma7660_set_data(0x05, 0xff);
 284:	6f ef       	ldi	r22, 0xFF	; 255
 286:	85 e0       	ldi	r24, 0x05	; 5
 288:	4d df       	rcall	.-358    	; 0x124 <mma7660_set_data>
		
		// set MODE to active
		mma7660_set_data(0x07,0b00011001);
 28a:	69 e1       	ldi	r22, 0x19	; 25
 28c:	87 e0       	ldi	r24, 0x07	; 7
 28e:	4a df       	rcall	.-364    	; 0x124 <mma7660_set_data>
		// set low
		PORTB &= ~(0x1 << PB2);
 290:	c2 98       	cbi	0x18, 2	; 24
 292:	8f e3       	ldi	r24, 0x3F	; 63
 294:	9c e9       	ldi	r25, 0x9C	; 156
 296:	01 97       	sbiw	r24, 0x01	; 1
 298:	f1 f7       	brne	.-4      	; 0x296 <__stack+0x37>
 29a:	00 c0       	rjmp	.+0      	; 0x29c <__stack+0x3d>
 29c:	00 00       	nop
 29e:	9f e7       	ldi	r25, 0x7F	; 127
 2a0:	2a e1       	ldi	r18, 0x1A	; 26
 2a2:	86 e0       	ldi	r24, 0x06	; 6
 2a4:	91 50       	subi	r25, 0x01	; 1
 2a6:	20 40       	sbci	r18, 0x00	; 0
 2a8:	80 40       	sbci	r24, 0x00	; 0
 2aa:	e1 f7       	brne	.-8      	; 0x2a4 <__stack+0x45>
 2ac:	00 c0       	rjmp	.+0      	; 0x2ae <__stack+0x4f>
 2ae:	00 00       	nop
		_delay_ms(20);
		
    _delay_ms(250);
		
    }
 2b0:	76 cf       	rjmp	.-276    	; 0x19e <main+0x3c>

000002b2 <__subsf3>:
 2b2:	50 58       	subi	r21, 0x80	; 128

000002b4 <__addsf3>:
 2b4:	bb 27       	eor	r27, r27
 2b6:	aa 27       	eor	r26, r26
 2b8:	0e d0       	rcall	.+28     	; 0x2d6 <__addsf3x>
 2ba:	a3 c0       	rjmp	.+326    	; 0x402 <__fp_round>
 2bc:	94 d0       	rcall	.+296    	; 0x3e6 <__fp_pscA>
 2be:	30 f0       	brcs	.+12     	; 0x2cc <__addsf3+0x18>
 2c0:	99 d0       	rcall	.+306    	; 0x3f4 <__fp_pscB>
 2c2:	20 f0       	brcs	.+8      	; 0x2cc <__addsf3+0x18>
 2c4:	31 f4       	brne	.+12     	; 0x2d2 <__addsf3+0x1e>
 2c6:	9f 3f       	cpi	r25, 0xFF	; 255
 2c8:	11 f4       	brne	.+4      	; 0x2ce <__addsf3+0x1a>
 2ca:	1e f4       	brtc	.+6      	; 0x2d2 <__addsf3+0x1e>
 2cc:	89 c0       	rjmp	.+274    	; 0x3e0 <__fp_nan>
 2ce:	0e f4       	brtc	.+2      	; 0x2d2 <__addsf3+0x1e>
 2d0:	e0 95       	com	r30
 2d2:	e7 fb       	bst	r30, 7
 2d4:	7f c0       	rjmp	.+254    	; 0x3d4 <__fp_inf>

000002d6 <__addsf3x>:
 2d6:	e9 2f       	mov	r30, r25
 2d8:	a5 d0       	rcall	.+330    	; 0x424 <__fp_split3>
 2da:	80 f3       	brcs	.-32     	; 0x2bc <__addsf3+0x8>
 2dc:	ba 17       	cp	r27, r26
 2de:	62 07       	cpc	r22, r18
 2e0:	73 07       	cpc	r23, r19
 2e2:	84 07       	cpc	r24, r20
 2e4:	95 07       	cpc	r25, r21
 2e6:	18 f0       	brcs	.+6      	; 0x2ee <__addsf3x+0x18>
 2e8:	71 f4       	brne	.+28     	; 0x306 <__addsf3x+0x30>
 2ea:	9e f5       	brtc	.+102    	; 0x352 <__addsf3x+0x7c>
 2ec:	bd c0       	rjmp	.+378    	; 0x468 <__fp_zero>
 2ee:	0e f4       	brtc	.+2      	; 0x2f2 <__addsf3x+0x1c>
 2f0:	e0 95       	com	r30
 2f2:	0b 2e       	mov	r0, r27
 2f4:	ba 2f       	mov	r27, r26
 2f6:	a0 2d       	mov	r26, r0
 2f8:	0b 01       	movw	r0, r22
 2fa:	b9 01       	movw	r22, r18
 2fc:	90 01       	movw	r18, r0
 2fe:	0c 01       	movw	r0, r24
 300:	ca 01       	movw	r24, r20
 302:	a0 01       	movw	r20, r0
 304:	11 24       	eor	r1, r1
 306:	ff 27       	eor	r31, r31
 308:	59 1b       	sub	r21, r25
 30a:	99 f0       	breq	.+38     	; 0x332 <__addsf3x+0x5c>
 30c:	59 3f       	cpi	r21, 0xF9	; 249
 30e:	50 f4       	brcc	.+20     	; 0x324 <__addsf3x+0x4e>
 310:	50 3e       	cpi	r21, 0xE0	; 224
 312:	68 f1       	brcs	.+90     	; 0x36e <__addsf3x+0x98>
 314:	1a 16       	cp	r1, r26
 316:	f0 40       	sbci	r31, 0x00	; 0
 318:	a2 2f       	mov	r26, r18
 31a:	23 2f       	mov	r18, r19
 31c:	34 2f       	mov	r19, r20
 31e:	44 27       	eor	r20, r20
 320:	58 5f       	subi	r21, 0xF8	; 248
 322:	f3 cf       	rjmp	.-26     	; 0x30a <__addsf3x+0x34>
 324:	46 95       	lsr	r20
 326:	37 95       	ror	r19
 328:	27 95       	ror	r18
 32a:	a7 95       	ror	r26
 32c:	f0 40       	sbci	r31, 0x00	; 0
 32e:	53 95       	inc	r21
 330:	c9 f7       	brne	.-14     	; 0x324 <__addsf3x+0x4e>
 332:	7e f4       	brtc	.+30     	; 0x352 <__addsf3x+0x7c>
 334:	1f 16       	cp	r1, r31
 336:	ba 0b       	sbc	r27, r26
 338:	62 0b       	sbc	r22, r18
 33a:	73 0b       	sbc	r23, r19
 33c:	84 0b       	sbc	r24, r20
 33e:	ba f0       	brmi	.+46     	; 0x36e <__addsf3x+0x98>
 340:	91 50       	subi	r25, 0x01	; 1
 342:	a1 f0       	breq	.+40     	; 0x36c <__addsf3x+0x96>
 344:	ff 0f       	add	r31, r31
 346:	bb 1f       	adc	r27, r27
 348:	66 1f       	adc	r22, r22
 34a:	77 1f       	adc	r23, r23
 34c:	88 1f       	adc	r24, r24
 34e:	c2 f7       	brpl	.-16     	; 0x340 <__addsf3x+0x6a>
 350:	0e c0       	rjmp	.+28     	; 0x36e <__addsf3x+0x98>
 352:	ba 0f       	add	r27, r26
 354:	62 1f       	adc	r22, r18
 356:	73 1f       	adc	r23, r19
 358:	84 1f       	adc	r24, r20
 35a:	48 f4       	brcc	.+18     	; 0x36e <__addsf3x+0x98>
 35c:	87 95       	ror	r24
 35e:	77 95       	ror	r23
 360:	67 95       	ror	r22
 362:	b7 95       	ror	r27
 364:	f7 95       	ror	r31
 366:	9e 3f       	cpi	r25, 0xFE	; 254
 368:	08 f0       	brcs	.+2      	; 0x36c <__addsf3x+0x96>
 36a:	b3 cf       	rjmp	.-154    	; 0x2d2 <__addsf3+0x1e>
 36c:	93 95       	inc	r25
 36e:	88 0f       	add	r24, r24
 370:	08 f0       	brcs	.+2      	; 0x374 <__addsf3x+0x9e>
 372:	99 27       	eor	r25, r25
 374:	ee 0f       	add	r30, r30
 376:	97 95       	ror	r25
 378:	87 95       	ror	r24
 37a:	08 95       	ret

0000037c <__fixunssfsi>:
 37c:	5b d0       	rcall	.+182    	; 0x434 <__fp_splitA>
 37e:	88 f0       	brcs	.+34     	; 0x3a2 <__fixunssfsi+0x26>
 380:	9f 57       	subi	r25, 0x7F	; 127
 382:	90 f0       	brcs	.+36     	; 0x3a8 <__fixunssfsi+0x2c>
 384:	b9 2f       	mov	r27, r25
 386:	99 27       	eor	r25, r25
 388:	b7 51       	subi	r27, 0x17	; 23
 38a:	a0 f0       	brcs	.+40     	; 0x3b4 <__fixunssfsi+0x38>
 38c:	d1 f0       	breq	.+52     	; 0x3c2 <__fixunssfsi+0x46>
 38e:	66 0f       	add	r22, r22
 390:	77 1f       	adc	r23, r23
 392:	88 1f       	adc	r24, r24
 394:	99 1f       	adc	r25, r25
 396:	1a f0       	brmi	.+6      	; 0x39e <__fixunssfsi+0x22>
 398:	ba 95       	dec	r27
 39a:	c9 f7       	brne	.-14     	; 0x38e <__fixunssfsi+0x12>
 39c:	12 c0       	rjmp	.+36     	; 0x3c2 <__fixunssfsi+0x46>
 39e:	b1 30       	cpi	r27, 0x01	; 1
 3a0:	81 f0       	breq	.+32     	; 0x3c2 <__fixunssfsi+0x46>
 3a2:	62 d0       	rcall	.+196    	; 0x468 <__fp_zero>
 3a4:	b1 e0       	ldi	r27, 0x01	; 1
 3a6:	08 95       	ret
 3a8:	5f c0       	rjmp	.+190    	; 0x468 <__fp_zero>
 3aa:	67 2f       	mov	r22, r23
 3ac:	78 2f       	mov	r23, r24
 3ae:	88 27       	eor	r24, r24
 3b0:	b8 5f       	subi	r27, 0xF8	; 248
 3b2:	39 f0       	breq	.+14     	; 0x3c2 <__fixunssfsi+0x46>
 3b4:	b9 3f       	cpi	r27, 0xF9	; 249
 3b6:	cc f3       	brlt	.-14     	; 0x3aa <__fixunssfsi+0x2e>
 3b8:	86 95       	lsr	r24
 3ba:	77 95       	ror	r23
 3bc:	67 95       	ror	r22
 3be:	b3 95       	inc	r27
 3c0:	d9 f7       	brne	.-10     	; 0x3b8 <__fixunssfsi+0x3c>
 3c2:	3e f4       	brtc	.+14     	; 0x3d2 <__fixunssfsi+0x56>
 3c4:	90 95       	com	r25
 3c6:	80 95       	com	r24
 3c8:	70 95       	com	r23
 3ca:	61 95       	neg	r22
 3cc:	7f 4f       	sbci	r23, 0xFF	; 255
 3ce:	8f 4f       	sbci	r24, 0xFF	; 255
 3d0:	9f 4f       	sbci	r25, 0xFF	; 255
 3d2:	08 95       	ret

000003d4 <__fp_inf>:
 3d4:	97 f9       	bld	r25, 7
 3d6:	9f 67       	ori	r25, 0x7F	; 127
 3d8:	80 e8       	ldi	r24, 0x80	; 128
 3da:	70 e0       	ldi	r23, 0x00	; 0
 3dc:	60 e0       	ldi	r22, 0x00	; 0
 3de:	08 95       	ret

000003e0 <__fp_nan>:
 3e0:	9f ef       	ldi	r25, 0xFF	; 255
 3e2:	80 ec       	ldi	r24, 0xC0	; 192
 3e4:	08 95       	ret

000003e6 <__fp_pscA>:
 3e6:	00 24       	eor	r0, r0
 3e8:	0a 94       	dec	r0
 3ea:	16 16       	cp	r1, r22
 3ec:	17 06       	cpc	r1, r23
 3ee:	18 06       	cpc	r1, r24
 3f0:	09 06       	cpc	r0, r25
 3f2:	08 95       	ret

000003f4 <__fp_pscB>:
 3f4:	00 24       	eor	r0, r0
 3f6:	0a 94       	dec	r0
 3f8:	12 16       	cp	r1, r18
 3fa:	13 06       	cpc	r1, r19
 3fc:	14 06       	cpc	r1, r20
 3fe:	05 06       	cpc	r0, r21
 400:	08 95       	ret

00000402 <__fp_round>:
 402:	09 2e       	mov	r0, r25
 404:	03 94       	inc	r0
 406:	00 0c       	add	r0, r0
 408:	11 f4       	brne	.+4      	; 0x40e <__fp_round+0xc>
 40a:	88 23       	and	r24, r24
 40c:	52 f0       	brmi	.+20     	; 0x422 <__fp_round+0x20>
 40e:	bb 0f       	add	r27, r27
 410:	40 f4       	brcc	.+16     	; 0x422 <__fp_round+0x20>
 412:	bf 2b       	or	r27, r31
 414:	11 f4       	brne	.+4      	; 0x41a <__fp_round+0x18>
 416:	60 ff       	sbrs	r22, 0
 418:	04 c0       	rjmp	.+8      	; 0x422 <__fp_round+0x20>
 41a:	6f 5f       	subi	r22, 0xFF	; 255
 41c:	7f 4f       	sbci	r23, 0xFF	; 255
 41e:	8f 4f       	sbci	r24, 0xFF	; 255
 420:	9f 4f       	sbci	r25, 0xFF	; 255
 422:	08 95       	ret

00000424 <__fp_split3>:
 424:	57 fd       	sbrc	r21, 7
 426:	90 58       	subi	r25, 0x80	; 128
 428:	44 0f       	add	r20, r20
 42a:	55 1f       	adc	r21, r21
 42c:	59 f0       	breq	.+22     	; 0x444 <__fp_splitA+0x10>
 42e:	5f 3f       	cpi	r21, 0xFF	; 255
 430:	71 f0       	breq	.+28     	; 0x44e <__fp_splitA+0x1a>
 432:	47 95       	ror	r20

00000434 <__fp_splitA>:
 434:	88 0f       	add	r24, r24
 436:	97 fb       	bst	r25, 7
 438:	99 1f       	adc	r25, r25
 43a:	61 f0       	breq	.+24     	; 0x454 <__fp_splitA+0x20>
 43c:	9f 3f       	cpi	r25, 0xFF	; 255
 43e:	79 f0       	breq	.+30     	; 0x45e <__fp_splitA+0x2a>
 440:	87 95       	ror	r24
 442:	08 95       	ret
 444:	12 16       	cp	r1, r18
 446:	13 06       	cpc	r1, r19
 448:	14 06       	cpc	r1, r20
 44a:	55 1f       	adc	r21, r21
 44c:	f2 cf       	rjmp	.-28     	; 0x432 <__fp_split3+0xe>
 44e:	46 95       	lsr	r20
 450:	f1 df       	rcall	.-30     	; 0x434 <__fp_splitA>
 452:	08 c0       	rjmp	.+16     	; 0x464 <__fp_splitA+0x30>
 454:	16 16       	cp	r1, r22
 456:	17 06       	cpc	r1, r23
 458:	18 06       	cpc	r1, r24
 45a:	99 1f       	adc	r25, r25
 45c:	f1 cf       	rjmp	.-30     	; 0x440 <__fp_splitA+0xc>
 45e:	86 95       	lsr	r24
 460:	71 05       	cpc	r23, r1
 462:	61 05       	cpc	r22, r1
 464:	08 94       	sec
 466:	08 95       	ret

00000468 <__fp_zero>:
 468:	e8 94       	clt

0000046a <__fp_szero>:
 46a:	bb 27       	eor	r27, r27
 46c:	66 27       	eor	r22, r22
 46e:	77 27       	eor	r23, r23
 470:	cb 01       	movw	r24, r22
 472:	97 f9       	bld	r25, 7
 474:	08 95       	ret

00000476 <_exit>:
 476:	f8 94       	cli

00000478 <__stop_program>:
 478:	ff cf       	rjmp	.-2      	; 0x478 <__stop_program>
